# SymbolsHelper-Confirmed: 17.12.1 amd64
libKPimKDAV.so.5abi1 libkpimkdav5abi1 #MINVER#
* Build-Depends-Package: libkpimkdav-dev
 ABI_5_1@ABI_5_1 17.12.1
 _ZN4KDAV10DavJobBase11qt_metacallEN11QMetaObject4CallEiPPv@ABI_5_1 17.12.1
 _ZN4KDAV10DavJobBase11qt_metacastEPKc@ABI_5_1 17.12.1
 _ZN4KDAV10DavJobBase11setDavErrorERKNS_5ErrorE@ABI_5_1 17.12.1
 _ZN4KDAV10DavJobBase11setJobErrorEj@ABI_5_1 17.12.1
 _ZN4KDAV10DavJobBase15setJobErrorTextERK7QString@ABI_5_1 17.12.1
 _ZN4KDAV10DavJobBase16staticMetaObjectE@ABI_5_1 17.12.1
 _ZN4KDAV10DavJobBase21setLatestResponseCodeEj@ABI_5_1 17.12.1
 _ZN4KDAV10DavJobBase24setErrorTextFromDavErrorEv@ABI_5_1 17.12.1
 _ZN4KDAV10DavJobBaseC1EP7QObject@ABI_5_1 17.12.1
 _ZN4KDAV10DavJobBaseC2EP7QObject@ABI_5_1 17.12.1
 _ZN4KDAV10DavJobBaseD0Ev@ABI_5_1 17.12.1
 _ZN4KDAV10DavJobBaseD1Ev@ABI_5_1 17.12.1
 _ZN4KDAV10DavJobBaseD2Ev@ABI_5_1 17.12.1
 _ZN4KDAV10DavManager11davProtocolENS_8ProtocolE@ABI_5_1 17.12.1
 _ZN4KDAV10DavManager14createProtocolENS_8ProtocolE@ABI_5_1 17.12.1
 _ZN4KDAV10DavManager4selfEv@ABI_5_1 17.12.1
 _ZN4KDAV10DavManager5mSelfE@ABI_5_1 17.12.1
 _ZN4KDAV10DavManagerC1Ev@ABI_5_1 17.12.1
 _ZN4KDAV10DavManagerC2Ev@ABI_5_1 17.12.1
 _ZN4KDAV10DavManagerD1Ev@ABI_5_1 17.12.1
 _ZN4KDAV10DavManagerD2Ev@ABI_5_1 17.12.1
 _ZN4KDAV13DavCollection13setPrivilegesE6QFlagsINS_9PrivilegeEE@ABI_5_1 17.12.1
 _ZN4KDAV13DavCollection14setDisplayNameERK7QString@ABI_5_1 17.12.1
 _ZN4KDAV13DavCollection15setContentTypesE6QFlagsINS0_11ContentTypeEE@ABI_5_1 17.12.1
 _ZN4KDAV13DavCollection6setUrlERKNS_6DavUrlE@ABI_5_1 17.12.1
 _ZN4KDAV13DavCollection7setCTagERK7QString@ABI_5_1 17.12.1
 _ZN4KDAV13DavCollection8setColorERK6QColor@ABI_5_1 17.12.1
 _ZN4KDAV13DavCollectionC1ERKNS_6DavUrlERK7QString6QFlagsINS0_11ContentTypeEE@ABI_5_1 17.12.1
 _ZN4KDAV13DavCollectionC1ERKS0_@ABI_5_1 17.12.1
 _ZN4KDAV13DavCollectionC1Ev@ABI_5_1 17.12.1
 _ZN4KDAV13DavCollectionC2ERKNS_6DavUrlERK7QString6QFlagsINS0_11ContentTypeEE@ABI_5_1 17.12.1
 _ZN4KDAV13DavCollectionC2ERKS0_@ABI_5_1 17.12.1
 _ZN4KDAV13DavCollectionC2Ev@ABI_5_1 17.12.1
 _ZN4KDAV13DavCollectionD1Ev@ABI_5_1 17.12.1
 _ZN4KDAV13DavCollectionD2Ev@ABI_5_1 17.12.1
 _ZN4KDAV13DavCollectionaSERKS0_@ABI_5_1 17.12.1
 _ZN4KDAV15DavItemFetchJob11qt_metacallEN11QMetaObject4CallEiPPv@ABI_5_1 17.12.1
 _ZN4KDAV15DavItemFetchJob11qt_metacastEPKc@ABI_5_1 17.12.1
 _ZN4KDAV15DavItemFetchJob14davJobFinishedEP4KJob@ABI_5_1 17.12.1
 _ZN4KDAV15DavItemFetchJob16staticMetaObjectE@ABI_5_1 17.12.1
 _ZN4KDAV15DavItemFetchJob5startEv@ABI_5_1 17.12.1
 _ZN4KDAV15DavItemFetchJobC1ERKNS_7DavItemEP7QObject@ABI_5_1 17.12.1
 _ZN4KDAV15DavItemFetchJobC2ERKNS_7DavItemEP7QObject@ABI_5_1 17.12.1
 _ZN4KDAV15DavItemsListJob11qt_metacallEN11QMetaObject4CallEiPPv@ABI_5_1 17.12.1
 _ZN4KDAV15DavItemsListJob11qt_metacastEPKc@ABI_5_1 17.12.1
 _ZN4KDAV15DavItemsListJob12setTimeRangeERK7QStringS3_@ABI_5_1 17.12.1
 _ZN4KDAV15DavItemsListJob14davJobFinishedEP4KJob@ABI_5_1 17.12.1
 _ZN4KDAV15DavItemsListJob16staticMetaObjectE@ABI_5_1 17.12.1
 _ZN4KDAV15DavItemsListJob19setContentMimeTypesERK11QStringList@ABI_5_1 17.12.1
 _ZN4KDAV15DavItemsListJob5startEv@ABI_5_1 17.12.1
 _ZN4KDAV15DavItemsListJobC1ERKNS_6DavUrlERKSt10shared_ptrINS_9EtagCacheEEP7QObject@ABI_5_1 17.12.1
 _ZN4KDAV15DavItemsListJobC2ERKNS_6DavUrlERKSt10shared_ptrINS_9EtagCacheEEP7QObject@ABI_5_1 17.12.1
 _ZN4KDAV15DavItemsListJobD0Ev@ABI_5_1 17.12.1
 _ZN4KDAV15DavItemsListJobD1Ev@ABI_5_1 17.12.1
 _ZN4KDAV15DavItemsListJobD2Ev@ABI_5_1 17.12.1
 _ZN4KDAV15DavProtocolBaseD0Ev@ABI_5_1 17.12.1
 _ZN4KDAV15DavProtocolBaseD1Ev@ABI_5_1 17.12.1
 _ZN4KDAV15DavProtocolBaseD2Ev@ABI_5_1 17.12.1
 _ZN4KDAV15XMLQueryBuilder12setParameterERK7QStringRK8QVariant@ABI_5_1 17.12.1
 _ZN4KDAV15XMLQueryBuilderD0Ev@ABI_5_1 17.12.1
 _ZN4KDAV15XMLQueryBuilderD1Ev@ABI_5_1 17.12.1
 _ZN4KDAV15XMLQueryBuilderD2Ev@ABI_5_1 17.12.1
 _ZN4KDAV16DavItemCreateJob11qt_metacallEN11QMetaObject4CallEiPPv@ABI_5_1 17.12.1
 _ZN4KDAV16DavItemCreateJob11qt_metacastEPKc@ABI_5_1 17.12.1
 _ZN4KDAV16DavItemCreateJob13itemRefreshedEP4KJob@ABI_5_1 17.12.1
 _ZN4KDAV16DavItemCreateJob14davJobFinishedEP4KJob@ABI_5_1 17.12.1
 _ZN4KDAV16DavItemCreateJob16staticMetaObjectE@ABI_5_1 17.12.1
 _ZN4KDAV16DavItemCreateJob5startEv@ABI_5_1 17.12.1
 _ZN4KDAV16DavItemCreateJobC1ERKNS_7DavItemEP7QObject@ABI_5_1 17.12.1
 _ZN4KDAV16DavItemCreateJobC2ERKNS_7DavItemEP7QObject@ABI_5_1 17.12.1
 _ZN4KDAV16DavItemDeleteJob11qt_metacallEN11QMetaObject4CallEiPPv@ABI_5_1 17.12.1
 _ZN4KDAV16DavItemDeleteJob11qt_metacastEPKc@ABI_5_1 17.12.1
 _ZN4KDAV16DavItemDeleteJob14davJobFinishedEP4KJob@ABI_5_1 17.12.1
 _ZN4KDAV16DavItemDeleteJob16staticMetaObjectE@ABI_5_1 17.12.1
 _ZN4KDAV16DavItemDeleteJob22conflictingItemFetchedEP4KJob@ABI_5_1 17.12.1
 _ZN4KDAV16DavItemDeleteJob5startEv@ABI_5_1 17.12.1
 _ZN4KDAV16DavItemDeleteJobC1ERKNS_7DavItemEP7QObject@ABI_5_1 17.12.1
 _ZN4KDAV16DavItemDeleteJobC2ERKNS_7DavItemEP7QObject@ABI_5_1 17.12.1
 _ZN4KDAV16DavItemModifyJob11qt_metacallEN11QMetaObject4CallEiPPv@ABI_5_1 17.12.1
 _ZN4KDAV16DavItemModifyJob11qt_metacastEPKc@ABI_5_1 17.12.1
 _ZN4KDAV16DavItemModifyJob13itemRefreshedEP4KJob@ABI_5_1 17.12.1
 _ZN4KDAV16DavItemModifyJob14davJobFinishedEP4KJob@ABI_5_1 17.12.1
 _ZN4KDAV16DavItemModifyJob16staticMetaObjectE@ABI_5_1 17.12.1
 _ZN4KDAV16DavItemModifyJob22conflictingItemFetchedEP4KJob@ABI_5_1 17.12.1
 _ZN4KDAV16DavItemModifyJob5startEv@ABI_5_1 17.12.1
 _ZN4KDAV16DavItemModifyJobC1ERKNS_7DavItemEP7QObject@ABI_5_1 17.12.1
 _ZN4KDAV16DavItemModifyJobC2ERKNS_7DavItemEP7QObject@ABI_5_1 17.12.1
 _ZN4KDAV16DavItemsFetchJob11qt_metacallEN11QMetaObject4CallEiPPv@ABI_5_1 17.12.1
 _ZN4KDAV16DavItemsFetchJob11qt_metacastEPKc@ABI_5_1 17.12.1
 _ZN4KDAV16DavItemsFetchJob14davJobFinishedEP4KJob@ABI_5_1 17.12.1
 _ZN4KDAV16DavItemsFetchJob16staticMetaObjectE@ABI_5_1 17.12.1
 _ZN4KDAV16DavItemsFetchJob5startEv@ABI_5_1 17.12.1
 _ZN4KDAV16DavItemsFetchJobC1ERKNS_6DavUrlERK11QStringListP7QObject@ABI_5_1 17.12.1
 _ZN4KDAV16DavItemsFetchJobC2ERKNS_6DavUrlERK11QStringListP7QObject@ABI_5_1 17.12.1
 _ZN4KDAV19DavMultigetProtocolD0Ev@ABI_5_1 17.12.1
 _ZN4KDAV19DavMultigetProtocolD1Ev@ABI_5_1 17.12.1
 _ZN4KDAV19DavMultigetProtocolD2Ev@ABI_5_1 17.12.1
 _ZN4KDAV21DavPrincipalSearchJob11qt_metacallEN11QMetaObject4CallEiPPv@ABI_5_1 17.12.1
 _ZN4KDAV21DavPrincipalSearchJob11qt_metacastEPKc@ABI_5_1 17.12.1
 _ZN4KDAV21DavPrincipalSearchJob13fetchPropertyERK7QStringS3_@ABI_5_1 17.12.1
 _ZN4KDAV21DavPrincipalSearchJob16buildReportQueryER12QDomDocument@ABI_5_1 17.12.1
 _ZN4KDAV21DavPrincipalSearchJob16staticMetaObjectE@ABI_5_1 17.12.1
 _ZN4KDAV21DavPrincipalSearchJob31principalPropertySearchFinishedEP4KJob@ABI_5_1 17.12.1
 _ZN4KDAV21DavPrincipalSearchJob36principalCollectionSetSearchFinishedEP4KJob@ABI_5_1 17.12.1
 _ZN4KDAV21DavPrincipalSearchJob5startEv@ABI_5_1 17.12.1
 _ZN4KDAV21DavPrincipalSearchJobC1ERKNS_6DavUrlENS0_10FilterTypeERK7QStringP7QObject@ABI_5_1 17.12.1
 _ZN4KDAV21DavPrincipalSearchJobC2ERKNS_6DavUrlENS0_10FilterTypeERK7QStringP7QObject@ABI_5_1 17.12.1
 _ZN4KDAV22DavCollectionDeleteJob11qt_metacallEN11QMetaObject4CallEiPPv@ABI_5_1 17.12.1
 _ZN4KDAV22DavCollectionDeleteJob11qt_metacastEPKc@ABI_5_1 17.12.1
 _ZN4KDAV22DavCollectionDeleteJob14davJobFinishedEP4KJob@ABI_5_1 17.12.1
 _ZN4KDAV22DavCollectionDeleteJob16staticMetaObjectE@ABI_5_1 17.12.1
 _ZN4KDAV22DavCollectionDeleteJob5startEv@ABI_5_1 17.12.1
 _ZN4KDAV22DavCollectionDeleteJobC1ERKNS_6DavUrlEP7QObject@ABI_5_1 17.12.1
 _ZN4KDAV22DavCollectionDeleteJobC2ERKNS_6DavUrlEP7QObject@ABI_5_1 17.12.1
 _ZN4KDAV22DavCollectionModifyJob11qt_metacallEN11QMetaObject4CallEiPPv@ABI_5_1 17.12.1
 _ZN4KDAV22DavCollectionModifyJob11qt_metacastEPKc@ABI_5_1 17.12.1
 _ZN4KDAV22DavCollectionModifyJob11setPropertyERK7QStringS3_S3_@ABI_5_1 17.12.1
 _ZN4KDAV22DavCollectionModifyJob14davJobFinishedEP4KJob@ABI_5_1 17.12.1
 _ZN4KDAV22DavCollectionModifyJob14removePropertyERK7QStringS3_@ABI_5_1 17.12.1
 _ZN4KDAV22DavCollectionModifyJob16staticMetaObjectE@ABI_5_1 17.12.1
 _ZN4KDAV22DavCollectionModifyJob5startEv@ABI_5_1 17.12.1
 _ZN4KDAV22DavCollectionModifyJobC1ERKNS_6DavUrlEP7QObject@ABI_5_1 17.12.1
 _ZN4KDAV22DavCollectionModifyJobC2ERKNS_6DavUrlEP7QObject@ABI_5_1 17.12.1
 _ZN4KDAV22DavCollectionsFetchJob11qt_metacallEN11QMetaObject4CallEiPPv@ABI_5_1 17.12.1
 _ZN4KDAV22DavCollectionsFetchJob11qt_metacastEPKc@ABI_5_1 17.12.1
 _ZN4KDAV22DavCollectionsFetchJob14subjobFinishedEv@ABI_5_1 17.12.1
 _ZN4KDAV22DavCollectionsFetchJob16staticMetaObjectE@ABI_5_1 17.12.1
 _ZN4KDAV22DavCollectionsFetchJob18doCollectionsFetchERK4QUrl@ABI_5_1 17.12.1
 _ZN4KDAV22DavCollectionsFetchJob20collectionDiscoveredEiRK7QStringS3_@ABI_5_1 17.12.1
 _ZN4KDAV22DavCollectionsFetchJob22principalFetchFinishedEP4KJob@ABI_5_1 17.12.1
 _ZN4KDAV22DavCollectionsFetchJob24collectionsFetchFinishedEP4KJob@ABI_5_1 17.12.1
 _ZN4KDAV22DavCollectionsFetchJob5startEv@ABI_5_1 17.12.1
 _ZN4KDAV22DavCollectionsFetchJobC1ERKNS_6DavUrlEP7QObject@ABI_5_1 17.12.1
 _ZN4KDAV22DavCollectionsFetchJobC2ERKNS_6DavUrlEP7QObject@ABI_5_1 17.12.1
 _ZN4KDAV27DavCollectionsMultiFetchJob11qt_metacallEN11QMetaObject4CallEiPPv@ABI_5_1 17.12.1
 _ZN4KDAV27DavCollectionsMultiFetchJob11qt_metacastEPKc@ABI_5_1 17.12.1
 _ZN4KDAV27DavCollectionsMultiFetchJob14davJobFinishedEP4KJob@ABI_5_1 17.12.1
 _ZN4KDAV27DavCollectionsMultiFetchJob16staticMetaObjectE@ABI_5_1 17.12.1
 _ZN4KDAV27DavCollectionsMultiFetchJob20collectionDiscoveredEiRK7QStringS3_@ABI_5_1 17.12.1
 _ZN4KDAV27DavCollectionsMultiFetchJob5startEv@ABI_5_1 17.12.1
 _ZN4KDAV27DavCollectionsMultiFetchJobC1ERK7QVectorINS_6DavUrlEEP7QObject@ABI_5_1 17.12.1
 _ZN4KDAV27DavCollectionsMultiFetchJobC2ERK7QVectorINS_6DavUrlEEP7QObject@ABI_5_1 17.12.1
 _ZN4KDAV28DavPrincipalHomeSetsFetchJob11qt_metacallEN11QMetaObject4CallEiPPv@ABI_5_1 17.12.1
 _ZN4KDAV28DavPrincipalHomeSetsFetchJob11qt_metacastEPKc@ABI_5_1 17.12.1
 _ZN4KDAV28DavPrincipalHomeSetsFetchJob13fetchHomeSetsEb@ABI_5_1 17.12.1
 _ZN4KDAV28DavPrincipalHomeSetsFetchJob14davJobFinishedEP4KJob@ABI_5_1 17.12.1
 _ZN4KDAV28DavPrincipalHomeSetsFetchJob16staticMetaObjectE@ABI_5_1 17.12.1
 _ZN4KDAV28DavPrincipalHomeSetsFetchJob5startEv@ABI_5_1 17.12.1
 _ZN4KDAV28DavPrincipalHomeSetsFetchJobC1ERKNS_6DavUrlEP7QObject@ABI_5_1 17.12.1
 _ZN4KDAV28DavPrincipalHomeSetsFetchJobC2ERKNS_6DavUrlEP7QObject@ABI_5_1 17.12.1
 _ZN4KDAV5ErrorC1ENS_11ErrorNumberEiRK7QStringi@ABI_5_1 17.12.1
 _ZN4KDAV5ErrorC1Ev@ABI_5_1 17.12.1
 _ZN4KDAV5ErrorC2ENS_11ErrorNumberEiRK7QStringi@ABI_5_1 17.12.1
 _ZN4KDAV5ErrorC2Ev@ABI_5_1 17.12.1
 _ZN4KDAV5Utils12protocolNameENS_8ProtocolE@ABI_5_1 17.12.1
 _ZN4KDAV5Utils14createUniqueIdEv@ABI_5_1 17.12.1
 _ZN4KDAV5Utils14parsePrivilegeERK11QDomElement@ABI_5_1 17.12.1
 _ZN4KDAV5Utils14protocolByNameERK7QString@ABI_5_1 17.12.1
 _ZN4KDAV5Utils16contactsMimeTypeENS_8ProtocolE@ABI_5_1 17.12.1
 _ZN4KDAV5Utils17extractPrivilegesERK11QDomElement@ABI_5_1 17.12.1
 _ZN4KDAV5Utils19firstChildElementNSERK11QDomElementRK7QStringS6_@ABI_5_1 17.12.1
 _ZN4KDAV5Utils20nextSiblingElementNSERK11QDomElementRK7QStringS6_@ABI_5_1 17.12.1
 _ZN4KDAV6DavUrl11setProtocolENS_8ProtocolE@ABI_5_1 17.12.1
 _ZN4KDAV6DavUrl6setUrlERK4QUrl@ABI_5_1 17.12.1
 _ZN4KDAV6DavUrlC1ERK4QUrlNS_8ProtocolE@ABI_5_1 17.12.1
 _ZN4KDAV6DavUrlC1Ev@ABI_5_1 17.12.1
 _ZN4KDAV6DavUrlC2ERK4QUrlNS_8ProtocolE@ABI_5_1 17.12.1
 _ZN4KDAV6DavUrlC2Ev@ABI_5_1 17.12.1
 _ZN4KDAV7DavItem14setContentTypeERK7QString@ABI_5_1 17.12.1
 _ZN4KDAV7DavItem6setUrlERKNS_6DavUrlE@ABI_5_1 17.12.1
 _ZN4KDAV7DavItem7setDataERK10QByteArray@ABI_5_1 17.12.1
 _ZN4KDAV7DavItem7setEtagERK7QString@ABI_5_1 17.12.1
 _ZN4KDAV7DavItemC1ERKNS_6DavUrlERK7QStringRK10QByteArrayS6_@ABI_5_1 17.12.1
 _ZN4KDAV7DavItemC1ERKS0_@ABI_5_1 17.12.1
 _ZN4KDAV7DavItemC1Ev@ABI_5_1 17.12.1
 _ZN4KDAV7DavItemC2ERKNS_6DavUrlERK7QStringRK10QByteArrayS6_@ABI_5_1 17.12.1
 _ZN4KDAV7DavItemC2ERKS0_@ABI_5_1 17.12.1
 _ZN4KDAV7DavItemC2Ev@ABI_5_1 17.12.1
 _ZN4KDAV7DavItemD1Ev@ABI_5_1 17.12.1
 _ZN4KDAV7DavItemD2Ev@ABI_5_1 17.12.1
 _ZN4KDAV7DavItemaSERKS0_@ABI_5_1 17.12.1
 _ZN4KDAV9EtagCache10removeEtagERK7QString@ABI_5_1 17.12.1
 _ZN4KDAV9EtagCache11qt_metacallEN11QMetaObject4CallEiPPv@ABI_5_1 17.12.1
 _ZN4KDAV9EtagCache11qt_metacastEPKc@ABI_5_1 17.12.1
 _ZN4KDAV9EtagCache13markAsChangedERK7QString@ABI_5_1 17.12.1
 _ZN4KDAV9EtagCache15setEtagInternalERK7QStringS3_@ABI_5_1 17.12.1
 _ZN4KDAV9EtagCache16staticMetaObjectE@ABI_5_1 17.12.1
 _ZN4KDAV9EtagCache7setEtagERK7QStringS3_@ABI_5_1 17.12.1
 _ZN4KDAV9EtagCacheC1EP7QObject@ABI_5_1 17.12.1
 _ZN4KDAV9EtagCacheC2EP7QObject@ABI_5_1 17.12.1
 _ZN4KDAVlsER11QDataStreamRKNS_6DavUrlE@ABI_5_1 17.12.1
 _ZN4KDAVlsER11QDataStreamRKNS_7DavItemE@ABI_5_1 17.12.1
 _ZN4KDAVrsER11QDataStreamRNS_6DavUrlE@ABI_5_1 17.12.1
 _ZN4KDAVrsER11QDataStreamRNS_7DavItemE@ABI_5_1 17.12.1
 _ZNK4KDAV10DavJobBase10metaObjectEv@ABI_5_1 17.12.1
 _ZNK4KDAV10DavJobBase11hasConflictEv@ABI_5_1 17.12.1
 _ZNK4KDAV10DavJobBase13canRetryLaterEv@ABI_5_1 17.12.1
 _ZNK4KDAV10DavJobBase18latestResponseCodeEv@ABI_5_1 17.12.1
 _ZNK4KDAV10DavJobBase8davErrorEv@ABI_5_1 17.12.1
 _ZNK4KDAV10DavManager15createReportJobERK4QUrlRK12QDomDocumentRK7QString@ABI_5_1 17.12.1
 _ZNK4KDAV10DavManager17createPropFindJobERK4QUrlRK12QDomDocumentRK7QString@ABI_5_1 17.12.1
 _ZNK4KDAV10DavManager18createPropPatchJobERK4QUrlRK12QDomDocument@ABI_5_1 17.12.1
 _ZNK4KDAV13DavCollection10privilegesEv@ABI_5_1 17.12.1
 _ZNK4KDAV13DavCollection11displayNameEv@ABI_5_1 17.12.1
 _ZNK4KDAV13DavCollection12contentTypesEv@ABI_5_1 17.12.1
 _ZNK4KDAV13DavCollection3urlEv@ABI_5_1 17.12.1
 _ZNK4KDAV13DavCollection4CTagEv@ABI_5_1 17.12.1
 _ZNK4KDAV13DavCollection5colorEv@ABI_5_1 17.12.1
 _ZNK4KDAV15DavItemFetchJob10metaObjectEv@ABI_5_1 17.12.1
 _ZNK4KDAV15DavItemFetchJob4itemEv@ABI_5_1 17.12.1
 _ZNK4KDAV15DavItemsListJob10metaObjectEv@ABI_5_1 17.12.1
 _ZNK4KDAV15DavItemsListJob12changedItemsEv@ABI_5_1 17.12.1
 _ZNK4KDAV15DavItemsListJob12deletedItemsEv@ABI_5_1 17.12.1
 _ZNK4KDAV15DavItemsListJob5itemsEv@ABI_5_1 17.12.1
 _ZNK4KDAV15DavProtocolBase16principalHomeSetEv@ABI_5_1 17.12.1
 _ZNK4KDAV15DavProtocolBase18principalHomeSetNSEv@ABI_5_1 17.12.1
 _ZNK4KDAV15XMLQueryBuilder9parameterERK7QString@ABI_5_1 17.12.1
 _ZNK4KDAV16DavItemCreateJob10metaObjectEv@ABI_5_1 17.12.1
 _ZNK4KDAV16DavItemCreateJob4itemEv@ABI_5_1 17.12.1
 _ZNK4KDAV16DavItemCreateJob7itemUrlEv@ABI_5_1 17.12.1
 _ZNK4KDAV16DavItemDeleteJob10metaObjectEv@ABI_5_1 17.12.1
 _ZNK4KDAV16DavItemDeleteJob17freshResponseCodeEv@ABI_5_1 17.12.1
 _ZNK4KDAV16DavItemDeleteJob9freshItemEv@ABI_5_1 17.12.1
 _ZNK4KDAV16DavItemModifyJob10metaObjectEv@ABI_5_1 17.12.1
 _ZNK4KDAV16DavItemModifyJob17freshResponseCodeEv@ABI_5_1 17.12.1
 _ZNK4KDAV16DavItemModifyJob4itemEv@ABI_5_1 17.12.1
 _ZNK4KDAV16DavItemModifyJob7itemUrlEv@ABI_5_1 17.12.1
 _ZNK4KDAV16DavItemModifyJob9freshItemEv@ABI_5_1 17.12.1
 _ZNK4KDAV16DavItemsFetchJob10metaObjectEv@ABI_5_1 17.12.1
 _ZNK4KDAV16DavItemsFetchJob4itemERK7QString@ABI_5_1 17.12.1
 _ZNK4KDAV16DavItemsFetchJob5itemsEv@ABI_5_1 17.12.1
 _ZNK4KDAV21DavPrincipalSearchJob10metaObjectEv@ABI_5_1 17.12.1
 _ZNK4KDAV21DavPrincipalSearchJob6davUrlEv@ABI_5_1 17.12.1
 _ZNK4KDAV21DavPrincipalSearchJob7resultsEv@ABI_5_1 17.12.1
 _ZNK4KDAV22DavCollectionDeleteJob10metaObjectEv@ABI_5_1 17.12.1
 _ZNK4KDAV22DavCollectionModifyJob10metaObjectEv@ABI_5_1 17.12.1
 _ZNK4KDAV22DavCollectionsFetchJob10metaObjectEv@ABI_5_1 17.12.1
 _ZNK4KDAV22DavCollectionsFetchJob11collectionsEv@ABI_5_1 17.12.1
 _ZNK4KDAV22DavCollectionsFetchJob6davUrlEv@ABI_5_1 17.12.1
 _ZNK4KDAV27DavCollectionsMultiFetchJob10metaObjectEv@ABI_5_1 17.12.1
 _ZNK4KDAV27DavCollectionsMultiFetchJob11collectionsEv@ABI_5_1 17.12.1
 _ZNK4KDAV28DavPrincipalHomeSetsFetchJob10metaObjectEv@ABI_5_1 17.12.1
 _ZNK4KDAV28DavPrincipalHomeSetsFetchJob8homeSetsEv@ABI_5_1 17.12.1
 _ZNK4KDAV5Error11errorNumberEv@ABI_5_1 17.12.1
 _ZNK4KDAV5Error12jobErrorCodeEv@ABI_5_1 17.12.1
 _ZNK4KDAV5Error12responseCodeEv@ABI_5_1 17.12.1
 _ZNK4KDAV5Error17internalErrorTextEv@ABI_5_1 17.12.1
 _ZNK4KDAV5Error18translatedJobErrorEv@ABI_5_1 17.12.1
 _ZNK4KDAV5Error9errorTextEv@ABI_5_1 17.12.1
 _ZNK4KDAV6DavUrl15toDisplayStringEv@ABI_5_1 17.12.1
 _ZNK4KDAV6DavUrl3urlEv@ABI_5_1 17.12.1
 _ZNK4KDAV6DavUrl8protocolEv@ABI_5_1 17.12.1
 _ZNK4KDAV7DavItem11contentTypeEv@ABI_5_1 17.12.1
 _ZNK4KDAV7DavItem3urlEv@ABI_5_1 17.12.1
 _ZNK4KDAV7DavItem4dataEv@ABI_5_1 17.12.1
 _ZNK4KDAV7DavItem4etagEv@ABI_5_1 17.12.1
 _ZNK4KDAV9EtagCache10metaObjectEv@ABI_5_1 17.12.1
 _ZNK4KDAV9EtagCache11etagChangedERK7QStringS3_@ABI_5_1 17.12.1
 _ZNK4KDAV9EtagCache11isOutOfDateERK7QString@ABI_5_1 17.12.1
 _ZNK4KDAV9EtagCache16changedRemoteIdsEv@ABI_5_1 17.12.1
 _ZNK4KDAV9EtagCache4urlsEv@ABI_5_1 17.12.1
 _ZNK4KDAV9EtagCache8containsERK7QString@ABI_5_1 17.12.1
 (optional=templinst|arch=armel)_ZNSt15_Sp_counted_ptrIDnLN9__gnu_cxx12_Lock_policyE1EE10_M_disposeEv@ABI_5_1 17.12.1
 (optional=templinst|arch=amd64)_ZNSt15_Sp_counted_ptrIDnLN9__gnu_cxx12_Lock_policyE2EE10_M_disposeEv@ABI_5_1 17.12.1
 (optional=templinst|arch=armel)_ZNSt16_Sp_counted_baseILN9__gnu_cxx12_Lock_policyE1EE10_M_destroyEv@ABI_5_1 17.12.1
 (optional=templinst|arch=amd64)_ZNSt16_Sp_counted_baseILN9__gnu_cxx12_Lock_policyE2EE10_M_destroyEv@ABI_5_1 17.12.1
 _ZTIN4KDAV10DavJobBaseE@ABI_5_1 17.12.1
 _ZTIN4KDAV15DavItemFetchJobE@ABI_5_1 17.12.1
 _ZTIN4KDAV15DavItemsListJobE@ABI_5_1 17.12.1
 _ZTIN4KDAV15DavProtocolBaseE@ABI_5_1 17.12.1
 _ZTIN4KDAV15XMLQueryBuilderE@ABI_5_1 17.12.1
 _ZTIN4KDAV16DavItemCreateJobE@ABI_5_1 17.12.1
 _ZTIN4KDAV16DavItemDeleteJobE@ABI_5_1 17.12.1
 _ZTIN4KDAV16DavItemModifyJobE@ABI_5_1 17.12.1
 _ZTIN4KDAV16DavItemsFetchJobE@ABI_5_1 17.12.1
 _ZTIN4KDAV19DavMultigetProtocolE@ABI_5_1 17.12.1
 _ZTIN4KDAV21DavPrincipalSearchJobE@ABI_5_1 17.12.1
 _ZTIN4KDAV22DavCollectionDeleteJobE@ABI_5_1 17.12.1
 _ZTIN4KDAV22DavCollectionModifyJobE@ABI_5_1 17.12.1
 _ZTIN4KDAV22DavCollectionsFetchJobE@ABI_5_1 17.12.1
 _ZTIN4KDAV27DavCollectionsMultiFetchJobE@ABI_5_1 17.12.1
 _ZTIN4KDAV28DavPrincipalHomeSetsFetchJobE@ABI_5_1 17.12.1
 _ZTIN4KDAV9EtagCacheE@ABI_5_1 17.12.1
 _ZTSN4KDAV10DavJobBaseE@ABI_5_1 17.12.1
 _ZTSN4KDAV15DavItemFetchJobE@ABI_5_1 17.12.1
 _ZTSN4KDAV15DavItemsListJobE@ABI_5_1 17.12.1
 _ZTSN4KDAV15DavProtocolBaseE@ABI_5_1 17.12.1
 _ZTSN4KDAV15XMLQueryBuilderE@ABI_5_1 17.12.1
 _ZTSN4KDAV16DavItemCreateJobE@ABI_5_1 17.12.1
 _ZTSN4KDAV16DavItemDeleteJobE@ABI_5_1 17.12.1
 _ZTSN4KDAV16DavItemModifyJobE@ABI_5_1 17.12.1
 _ZTSN4KDAV16DavItemsFetchJobE@ABI_5_1 17.12.1
 _ZTSN4KDAV19DavMultigetProtocolE@ABI_5_1 17.12.1
 _ZTSN4KDAV21DavPrincipalSearchJobE@ABI_5_1 17.12.1
 _ZTSN4KDAV22DavCollectionDeleteJobE@ABI_5_1 17.12.1
 _ZTSN4KDAV22DavCollectionModifyJobE@ABI_5_1 17.12.1
 _ZTSN4KDAV22DavCollectionsFetchJobE@ABI_5_1 17.12.1
 _ZTSN4KDAV27DavCollectionsMultiFetchJobE@ABI_5_1 17.12.1
 _ZTSN4KDAV28DavPrincipalHomeSetsFetchJobE@ABI_5_1 17.12.1
 _ZTSN4KDAV9EtagCacheE@ABI_5_1 17.12.1
 _ZTVN4KDAV10DavJobBaseE@ABI_5_1 17.12.1
 _ZTVN4KDAV15DavItemFetchJobE@ABI_5_1 17.12.1
 _ZTVN4KDAV15DavItemsListJobE@ABI_5_1 17.12.1
 _ZTVN4KDAV15DavProtocolBaseE@ABI_5_1 17.12.1
 _ZTVN4KDAV15XMLQueryBuilderE@ABI_5_1 17.12.1
 _ZTVN4KDAV16DavItemCreateJobE@ABI_5_1 17.12.1
 _ZTVN4KDAV16DavItemDeleteJobE@ABI_5_1 17.12.1
 _ZTVN4KDAV16DavItemModifyJobE@ABI_5_1 17.12.1
 _ZTVN4KDAV16DavItemsFetchJobE@ABI_5_1 17.12.1
 _ZTVN4KDAV19DavMultigetProtocolE@ABI_5_1 17.12.1
 _ZTVN4KDAV21DavPrincipalSearchJobE@ABI_5_1 17.12.1
 _ZTVN4KDAV22DavCollectionDeleteJobE@ABI_5_1 17.12.1
 _ZTVN4KDAV22DavCollectionModifyJobE@ABI_5_1 17.12.1
 _ZTVN4KDAV22DavCollectionsFetchJobE@ABI_5_1 17.12.1
 _ZTVN4KDAV27DavCollectionsMultiFetchJobE@ABI_5_1 17.12.1
 _ZTVN4KDAV28DavPrincipalHomeSetsFetchJobE@ABI_5_1 17.12.1
 _ZTVN4KDAV9EtagCacheE@ABI_5_1 17.12.1
 _ZZZNK4KDAV10DavManager15createReportJobERK4QUrlRK12QDomDocumentRK7QStringEd_NKUlvE_clEvE15qstring_literal@ABI_5_1 17.12.1
 _ZZZNK4KDAV10DavManager17createPropFindJobERK4QUrlRK12QDomDocumentRK7QStringEd_NKUlvE_clEvE15qstring_literal@ABI_5_1 17.12.1
